(dp1
S'OriginalConfig'
p2
ccopy_reg
_reconstructor
p3
(cWMCore.Configuration
Configuration
p4
c__builtin__
object
p5
NtRp6
(dp7
S'Site'
p8
g3
(cWMCore.Configuration
ConfigSection
p9
g5
NtRp10
(dp11
S'_internal_skipChecks'
p12
I00
sS'_internal_documentation'
p13
S''
sS'_internal_settings'
p14
c__builtin__
set
p15
((lp16
S'storageSite'
p17
atRp18
sS'_internal_name'
p19
g8
sS'_internal_docstrings'
p20
(dp21
sS'_internal_children'
p22
g15
((ltRp23
sg17
S'T2_CH_CERN'
p24
sS'_internal_parent_ref'
p25
NsbsS'_internal_sections'
p26
(lp27
S'General'
p28
aS'JobType'
p29
aS'Data'
p30
ag8
aS'User'
p31
aS'Debug'
p32
asg28
g3
(g9
g5
NtRp33
(dp34
g12
I00
sg13
S''
sg14
g15
((lp35
S'workArea'
p36
aS'requestName'
p37
atRp38
sg19
g28
sg20
(dp39
sg22
g15
((ltRp40
sg37
S'ggXToYYTo2mu2e_m22_PseudoScalar_13TeV'
p41
sg25
Nsg36
S'crab_projects'
p42
sbsS'_internal_webapps'
p43
(lp44
sg31
g3
(g9
g5
NtRp45
(dp46
g12
I00
sg13
S''
sg14
g15
((ltRp47
sg19
g31
sg20
(dp48
sg22
g15
((ltRp49
sg25
NsbsS'_internal_components'
p50
(lp51
sg32
g3
(g9
g5
NtRp52
(dp53
g12
I00
sg13
S''
sg14
g15
((ltRp54
sg19
g32
sg20
(dp55
sg22
g15
((ltRp56
sg25
Nsbsg30
g3
(g9
g5
NtRp57
(dp58
g12
I00
sS'unitsPerJob'
p59
I1
sg13
S''
sg14
g15
((lp60
S'publication'
p61
ag59
aS'userInputFiles'
p62
aS'splitting'
p63
aS'outLFNDirBase'
p64
aS'outputPrimaryDataset'
p65
atRp66
sg64
S'/store/group/phys_egamma/soffi/ggXToYYTo2mu2e/'
p67
sg19
g30
sg63
S'FileBased'
p68
sg20
(dp69
sg22
g15
((ltRp70
sg65
S'ggXToYYTo2mu2e_m22_PseudoScalar_13TeV_OUTPUT'
p71
sg25
Nsg62
(lp72
S'root://cmsxrootd.fnal.gov//store/mc/RunIISummer16MiniAODv2/ggXToYYTo2mu2e_m22_PseudoScalar_13TeV-pythia8-JHUGen/MINIAODSIM/PUMoriond17_80X_mcRun2_asymptotic_2016_TrancheIV_v6-v1/60000/06F5E91A-CAB9-E811-B240-246E96D14C70.root\n'
p73
aS'root://cmsxrootd.fnal.gov//store/mc/RunIISummer16MiniAODv2/ggXToYYTo2mu2e_m22_PseudoScalar_13TeV-pythia8-JHUGen/MINIAODSIM/PUMoriond17_80X_mcRun2_asymptotic_2016_TrancheIV_v6-v1/60000/0E5D68B4-C9B9-E811-869C-1418774A2960.root\n'
p74
aS'root://cmsxrootd.fnal.gov//store/mc/RunIISummer16MiniAODv2/ggXToYYTo2mu2e_m22_PseudoScalar_13TeV-pythia8-JHUGen/MINIAODSIM/PUMoriond17_80X_mcRun2_asymptotic_2016_TrancheIV_v6-v1/60000/1E757B89-32B9-E811-9333-0CC47AD98D6C.root\n'
p75
aS'root://cmsxrootd.fnal.gov//store/mc/RunIISummer16MiniAODv2/ggXToYYTo2mu2e_m22_PseudoScalar_13TeV-pythia8-JHUGen/MINIAODSIM/PUMoriond17_80X_mcRun2_asymptotic_2016_TrancheIV_v6-v1/60000/24EAB9CE-C9B9-E811-B244-5065F3810301.root\n'
p76
aS'root://cmsxrootd.fnal.gov//store/mc/RunIISummer16MiniAODv2/ggXToYYTo2mu2e_m22_PseudoScalar_13TeV-pythia8-JHUGen/MINIAODSIM/PUMoriond17_80X_mcRun2_asymptotic_2016_TrancheIV_v6-v1/60000/266187CE-C9B9-E811-802A-0425C5DE7BF6.root\n'
p77
aS'root://cmsxrootd.fnal.gov//store/mc/RunIISummer16MiniAODv2/ggXToYYTo2mu2e_m22_PseudoScalar_13TeV-pythia8-JHUGen/MINIAODSIM/PUMoriond17_80X_mcRun2_asymptotic_2016_TrancheIV_v6-v1/60000/504D5521-CAB9-E811-86E8-0CC47AFC3CA0.root\n'
p78
aS'root://cmsxrootd.fnal.gov//store/mc/RunIISummer16MiniAODv2/ggXToYYTo2mu2e_m22_PseudoScalar_13TeV-pythia8-JHUGen/MINIAODSIM/PUMoriond17_80X_mcRun2_asymptotic_2016_TrancheIV_v6-v1/60000/520757B9-C9B9-E811-8CDC-0242AC1C0500.root\n'
p79
aS'root://cmsxrootd.fnal.gov//store/mc/RunIISummer16MiniAODv2/ggXToYYTo2mu2e_m22_PseudoScalar_13TeV-pythia8-JHUGen/MINIAODSIM/PUMoriond17_80X_mcRun2_asymptotic_2016_TrancheIV_v6-v1/60000/58CABA27-CAB9-E811-AD90-000E1E878860.root\n'
p80
aS'root://cmsxrootd.fnal.gov//store/mc/RunIISummer16MiniAODv2/ggXToYYTo2mu2e_m22_PseudoScalar_13TeV-pythia8-JHUGen/MINIAODSIM/PUMoriond17_80X_mcRun2_asymptotic_2016_TrancheIV_v6-v1/60000/5A2276C7-C9B9-E811-B52D-A0369FE2C152.root\n'
p81
aS'root://cmsxrootd.fnal.gov//store/mc/RunIISummer16MiniAODv2/ggXToYYTo2mu2e_m22_PseudoScalar_13TeV-pythia8-JHUGen/MINIAODSIM/PUMoriond17_80X_mcRun2_asymptotic_2016_TrancheIV_v6-v1/60000/5A398598-28B9-E811-BFDB-00000086FE80.root\n'
p82
aS'root://cmsxrootd.fnal.gov//store/mc/RunIISummer16MiniAODv2/ggXToYYTo2mu2e_m22_PseudoScalar_13TeV-pythia8-JHUGen/MINIAODSIM/PUMoriond17_80X_mcRun2_asymptotic_2016_TrancheIV_v6-v1/60000/68DEE8A8-C9B9-E811-8720-0CC47A4D768C.root\n'
p83
aS'root://cmsxrootd.fnal.gov//store/mc/RunIISummer16MiniAODv2/ggXToYYTo2mu2e_m22_PseudoScalar_13TeV-pythia8-JHUGen/MINIAODSIM/PUMoriond17_80X_mcRun2_asymptotic_2016_TrancheIV_v6-v1/60000/76188BE6-C9B9-E811-8A45-EC0D9A0B3320.root\n'
p84
aS'root://cmsxrootd.fnal.gov//store/mc/RunIISummer16MiniAODv2/ggXToYYTo2mu2e_m22_PseudoScalar_13TeV-pythia8-JHUGen/MINIAODSIM/PUMoriond17_80X_mcRun2_asymptotic_2016_TrancheIV_v6-v1/60000/D8556AE5-C9B9-E811-A74D-00259029E714.root\n'
p85
aS'root://cmsxrootd.fnal.gov//store/mc/RunIISummer16MiniAODv2/ggXToYYTo2mu2e_m22_PseudoScalar_13TeV-pythia8-JHUGen/MINIAODSIM/PUMoriond17_80X_mcRun2_asymptotic_2016_TrancheIV_v6-v1/60000/EE8A05F5-C9B9-E811-B703-003048F7CC8A.root\n'
p86
aS'root://cmsxrootd.fnal.gov//store/mc/RunIISummer16MiniAODv2/ggXToYYTo2mu2e_m22_PseudoScalar_13TeV-pythia8-JHUGen/MINIAODSIM/PUMoriond17_80X_mcRun2_asymptotic_2016_TrancheIV_v6-v1/60000/EE935618-CAB9-E811-8270-3417EBE64CDB.root\n'
p87
aS'root://cmsxrootd.fnal.gov//store/mc/RunIISummer16MiniAODv2/ggXToYYTo2mu2e_m22_PseudoScalar_13TeV-pythia8-JHUGen/MINIAODSIM/PUMoriond17_80X_mcRun2_asymptotic_2016_TrancheIV_v6-v1/60000/F6FDD9BE-C9B9-E811-A048-3417EBE64BB5.root\n'
p88
asg61
I00
sbsg29
g3
(g9
g5
NtRp89
(dp90
g12
I00
sg13
S''
sg14
g15
((lp91
S'psetName'
p92
aS'pluginName'
p93
aS'inputFiles'
p94
aS'allowUndistributedCMSSW'
p95
atRp96
sg19
g29
sg20
(dp97
sg93
S'analysis'
p98
sg22
g15
((ltRp99
sg95
I01
sg92
S'ConfFile_cfg.py'
p100
sg25
Nsg94
(lp101
S'lowPtEleReg_2017UL_25112020.db'
p102
aS'pileup_ALL.root'
p103
aS'pileup_2018.root'
p104
aS'pileup_2017.root'
p105
aS'pileup_2016.root'
p106
aS'Cert_314472-325175_13TeV_Legacy2018_Collisions18_JSON.txt'
p107
aS'Cert_294927-306462_13TeV_UL2017_Collisions17_GoldenJSON.txt'
p108
aS'Cert_271036-284044_13TeV_Legacy2016_Collisions16_JSON.txt'
p109
asbsbsS'voGroup'
p110
S''
sS'Server'
p111
S'cmsweb.cern.ch'
p112
sS'instance'
p113
S'prod'
p114
sS'RequestName'
p115
V210419_125538:soffi_crab_ggXToYYTo2mu2e_m22_PseudoScalar_13TeV
p116
sS'voRole'
p117
S'NULL'
p118
sS'Port'
p119
S''
s.