(dp1
S'OriginalConfig'
p2
ccopy_reg
_reconstructor
p3
(cWMCore.Configuration
Configuration
p4
c__builtin__
object
p5
NtRp6
(dp7
S'Site'
p8
g3
(cWMCore.Configuration
ConfigSection
p9
g5
NtRp10
(dp11
S'_internal_skipChecks'
p12
I00
sS'_internal_documentation'
p13
S''
sS'_internal_settings'
p14
c__builtin__
set
p15
((lp16
S'storageSite'
p17
atRp18
sS'_internal_name'
p19
g8
sS'_internal_docstrings'
p20
(dp21
sS'_internal_children'
p22
g15
((ltRp23
sg17
S'T2_CH_CERN'
p24
sS'_internal_parent_ref'
p25
NsbsS'_internal_sections'
p26
(lp27
S'General'
p28
aS'JobType'
p29
aS'Data'
p30
ag8
aS'User'
p31
aS'Debug'
p32
asg28
g3
(g9
g5
NtRp33
(dp34
g12
I00
sg13
S''
sg14
g15
((lp35
S'workArea'
p36
aS'requestName'
p37
atRp38
sg19
g28
sg20
(dp39
sg22
g15
((ltRp40
sg37
S'ggXToYYTo2mu2e_m18_PseudoScalar_13TeV'
p41
sg25
Nsg36
S'crab_projects'
p42
sbsS'_internal_webapps'
p43
(lp44
sg31
g3
(g9
g5
NtRp45
(dp46
g12
I00
sg13
S''
sg14
g15
((ltRp47
sg19
g31
sg20
(dp48
sg22
g15
((ltRp49
sg25
NsbsS'_internal_components'
p50
(lp51
sg32
g3
(g9
g5
NtRp52
(dp53
g12
I00
sg13
S''
sg14
g15
((ltRp54
sg19
g32
sg20
(dp55
sg22
g15
((ltRp56
sg25
Nsbsg30
g3
(g9
g5
NtRp57
(dp58
g12
I00
sS'unitsPerJob'
p59
I1
sg13
S''
sg14
g15
((lp60
S'publication'
p61
ag59
aS'userInputFiles'
p62
aS'splitting'
p63
aS'outLFNDirBase'
p64
aS'outputPrimaryDataset'
p65
atRp66
sg64
S'/store/group/phys_egamma/soffi/ggXToYYTo2mu2e/'
p67
sg19
g30
sg63
S'FileBased'
p68
sg20
(dp69
sg22
g15
((ltRp70
sg65
S'ggXToYYTo2mu2e_m18_PseudoScalar_13TeV_OUTPUT'
p71
sg25
Nsg62
(lp72
S'root://cmsxrootd.fnal.gov//store/mc/RunIISummer16MiniAODv2/ggXToYYTo2mu2e_m18_PseudoScalar_13TeV-pythia8-JHUGen/MINIAODSIM/PUMoriond17_80X_mcRun2_asymptotic_2016_TrancheIV_v6-v2/100000/06C2C956-E5EC-E811-9315-0242AC130002.root\n'
p73
aS'root://cmsxrootd.fnal.gov//store/mc/RunIISummer16MiniAODv2/ggXToYYTo2mu2e_m18_PseudoScalar_13TeV-pythia8-JHUGen/MINIAODSIM/PUMoriond17_80X_mcRun2_asymptotic_2016_TrancheIV_v6-v2/100000/08B9DCC9-CAEC-E811-8BB3-0025904B0FDC.root\n'
p74
aS'root://cmsxrootd.fnal.gov//store/mc/RunIISummer16MiniAODv2/ggXToYYTo2mu2e_m18_PseudoScalar_13TeV-pythia8-JHUGen/MINIAODSIM/PUMoriond17_80X_mcRun2_asymptotic_2016_TrancheIV_v6-v2/100000/160B5697-46ED-E811-AD55-001E675A6D10.root\n'
p75
aS'root://cmsxrootd.fnal.gov//store/mc/RunIISummer16MiniAODv2/ggXToYYTo2mu2e_m18_PseudoScalar_13TeV-pythia8-JHUGen/MINIAODSIM/PUMoriond17_80X_mcRun2_asymptotic_2016_TrancheIV_v6-v2/100000/224A7256-D5EC-E811-83FD-801844DEEF1C.root\n'
p76
aS'root://cmsxrootd.fnal.gov//store/mc/RunIISummer16MiniAODv2/ggXToYYTo2mu2e_m18_PseudoScalar_13TeV-pythia8-JHUGen/MINIAODSIM/PUMoriond17_80X_mcRun2_asymptotic_2016_TrancheIV_v6-v2/100000/2A101CE9-CAEC-E811-BCB1-C0BFC0E56816.root\n'
p77
aS'root://cmsxrootd.fnal.gov//store/mc/RunIISummer16MiniAODv2/ggXToYYTo2mu2e_m18_PseudoScalar_13TeV-pythia8-JHUGen/MINIAODSIM/PUMoriond17_80X_mcRun2_asymptotic_2016_TrancheIV_v6-v2/100000/2C888440-D2EC-E811-9D6E-20CF307C98DC.root\n'
p78
aS'root://cmsxrootd.fnal.gov//store/mc/RunIISummer16MiniAODv2/ggXToYYTo2mu2e_m18_PseudoScalar_13TeV-pythia8-JHUGen/MINIAODSIM/PUMoriond17_80X_mcRun2_asymptotic_2016_TrancheIV_v6-v2/100000/34590DC8-CAEC-E811-92A0-90B11CBCFF41.root\n'
p79
aS'root://cmsxrootd.fnal.gov//store/mc/RunIISummer16MiniAODv2/ggXToYYTo2mu2e_m18_PseudoScalar_13TeV-pythia8-JHUGen/MINIAODSIM/PUMoriond17_80X_mcRun2_asymptotic_2016_TrancheIV_v6-v2/100000/367F64E8-94F1-E811-8F2D-B4969109F684.root\n'
p80
aS'root://cmsxrootd.fnal.gov//store/mc/RunIISummer16MiniAODv2/ggXToYYTo2mu2e_m18_PseudoScalar_13TeV-pythia8-JHUGen/MINIAODSIM/PUMoriond17_80X_mcRun2_asymptotic_2016_TrancheIV_v6-v2/100000/3E4341FC-CDEC-E811-9C6E-7CD30ACE142C.root\n'
p81
aS'root://cmsxrootd.fnal.gov//store/mc/RunIISummer16MiniAODv2/ggXToYYTo2mu2e_m18_PseudoScalar_13TeV-pythia8-JHUGen/MINIAODSIM/PUMoriond17_80X_mcRun2_asymptotic_2016_TrancheIV_v6-v2/100000/42A25133-E2EC-E811-A7E5-509A4C781343.root\n'
p82
aS'root://cmsxrootd.fnal.gov//store/mc/RunIISummer16MiniAODv2/ggXToYYTo2mu2e_m18_PseudoScalar_13TeV-pythia8-JHUGen/MINIAODSIM/PUMoriond17_80X_mcRun2_asymptotic_2016_TrancheIV_v6-v2/100000/68651C7F-CEEC-E811-9C69-0CC47A57D036.root\n'
p83
aS'root://cmsxrootd.fnal.gov//store/mc/RunIISummer16MiniAODv2/ggXToYYTo2mu2e_m18_PseudoScalar_13TeV-pythia8-JHUGen/MINIAODSIM/PUMoriond17_80X_mcRun2_asymptotic_2016_TrancheIV_v6-v2/100000/720B0C08-CEEC-E811-B6DF-48D539F38868.root\n'
p84
aS'root://cmsxrootd.fnal.gov//store/mc/RunIISummer16MiniAODv2/ggXToYYTo2mu2e_m18_PseudoScalar_13TeV-pythia8-JHUGen/MINIAODSIM/PUMoriond17_80X_mcRun2_asymptotic_2016_TrancheIV_v6-v2/100000/741168F4-CDEC-E811-836E-0242AC1C0503.root\n'
p85
aS'root://cmsxrootd.fnal.gov//store/mc/RunIISummer16MiniAODv2/ggXToYYTo2mu2e_m18_PseudoScalar_13TeV-pythia8-JHUGen/MINIAODSIM/PUMoriond17_80X_mcRun2_asymptotic_2016_TrancheIV_v6-v2/100000/7A057758-CFEC-E811-A172-0025904C7DFA.root\n'
p86
aS'root://cmsxrootd.fnal.gov//store/mc/RunIISummer16MiniAODv2/ggXToYYTo2mu2e_m18_PseudoScalar_13TeV-pythia8-JHUGen/MINIAODSIM/PUMoriond17_80X_mcRun2_asymptotic_2016_TrancheIV_v6-v2/100000/7CC6114A-D0EC-E811-9C8E-0025909081F2.root\n'
p87
aS'root://cmsxrootd.fnal.gov//store/mc/RunIISummer16MiniAODv2/ggXToYYTo2mu2e_m18_PseudoScalar_13TeV-pythia8-JHUGen/MINIAODSIM/PUMoriond17_80X_mcRun2_asymptotic_2016_TrancheIV_v6-v2/100000/7E21C0A8-CAEC-E811-B083-0CC47A4C8E5E.root\n'
p88
aS'root://cmsxrootd.fnal.gov//store/mc/RunIISummer16MiniAODv2/ggXToYYTo2mu2e_m18_PseudoScalar_13TeV-pythia8-JHUGen/MINIAODSIM/PUMoriond17_80X_mcRun2_asymptotic_2016_TrancheIV_v6-v2/100000/7E902BEE-CDEC-E811-89E5-003048CDCE7A.root\n'
p89
aS'root://cmsxrootd.fnal.gov//store/mc/RunIISummer16MiniAODv2/ggXToYYTo2mu2e_m18_PseudoScalar_13TeV-pythia8-JHUGen/MINIAODSIM/PUMoriond17_80X_mcRun2_asymptotic_2016_TrancheIV_v6-v2/100000/802BEC4C-18E6-E811-8D92-A4BADB1C0EF1.root\n'
p90
aS'root://cmsxrootd.fnal.gov//store/mc/RunIISummer16MiniAODv2/ggXToYYTo2mu2e_m18_PseudoScalar_13TeV-pythia8-JHUGen/MINIAODSIM/PUMoriond17_80X_mcRun2_asymptotic_2016_TrancheIV_v6-v2/100000/82B8F9C1-CDEC-E811-AA5A-001E67E6F7F1.root\n'
p91
aS'root://cmsxrootd.fnal.gov//store/mc/RunIISummer16MiniAODv2/ggXToYYTo2mu2e_m18_PseudoScalar_13TeV-pythia8-JHUGen/MINIAODSIM/PUMoriond17_80X_mcRun2_asymptotic_2016_TrancheIV_v6-v2/100000/98CB2187-DAEC-E811-AF5E-008CFA0527CC.root\n'
p92
aS'root://cmsxrootd.fnal.gov//store/mc/RunIISummer16MiniAODv2/ggXToYYTo2mu2e_m18_PseudoScalar_13TeV-pythia8-JHUGen/MINIAODSIM/PUMoriond17_80X_mcRun2_asymptotic_2016_TrancheIV_v6-v2/100000/9E4960CA-CAEC-E811-825D-842B2B71EDBE.root\n'
p93
aS'root://cmsxrootd.fnal.gov//store/mc/RunIISummer16MiniAODv2/ggXToYYTo2mu2e_m18_PseudoScalar_13TeV-pythia8-JHUGen/MINIAODSIM/PUMoriond17_80X_mcRun2_asymptotic_2016_TrancheIV_v6-v2/100000/AA8A78D1-ABE5-E811-9F72-0242AC130002.root\n'
p94
aS'root://cmsxrootd.fnal.gov//store/mc/RunIISummer16MiniAODv2/ggXToYYTo2mu2e_m18_PseudoScalar_13TeV-pythia8-JHUGen/MINIAODSIM/PUMoriond17_80X_mcRun2_asymptotic_2016_TrancheIV_v6-v2/100000/BA16DBCA-CAEC-E811-AB39-0025904956BE.root\n'
p95
aS'root://cmsxrootd.fnal.gov//store/mc/RunIISummer16MiniAODv2/ggXToYYTo2mu2e_m18_PseudoScalar_13TeV-pythia8-JHUGen/MINIAODSIM/PUMoriond17_80X_mcRun2_asymptotic_2016_TrancheIV_v6-v2/100000/BC9833B2-CAEC-E811-BB13-0CC47A6C186C.root\n'
p96
aS'root://cmsxrootd.fnal.gov//store/mc/RunIISummer16MiniAODv2/ggXToYYTo2mu2e_m18_PseudoScalar_13TeV-pythia8-JHUGen/MINIAODSIM/PUMoriond17_80X_mcRun2_asymptotic_2016_TrancheIV_v6-v2/100000/DA652E66-D1EC-E811-A686-0025905C2CE8.root\n'
p97
aS'root://cmsxrootd.fnal.gov//store/mc/RunIISummer16MiniAODv2/ggXToYYTo2mu2e_m18_PseudoScalar_13TeV-pythia8-JHUGen/MINIAODSIM/PUMoriond17_80X_mcRun2_asymptotic_2016_TrancheIV_v6-v2/100000/E640B468-FDEC-E811-9113-24BE05C44BC1.root\n'
p98
asg61
I00
sbsg29
g3
(g9
g5
NtRp99
(dp100
g12
I00
sg13
S''
sg14
g15
((lp101
S'psetName'
p102
aS'pluginName'
p103
aS'inputFiles'
p104
aS'allowUndistributedCMSSW'
p105
atRp106
sg19
g29
sg20
(dp107
sg103
S'analysis'
p108
sg22
g15
((ltRp109
sg105
I01
sg102
S'ConfFile_cfg.py'
p110
sg25
Nsg104
(lp111
S'lowPtEleReg_2017UL_25112020.db'
p112
aS'pileup_ALL.root'
p113
aS'pileup_2018.root'
p114
aS'pileup_2017.root'
p115
aS'pileup_2016.root'
p116
aS'Cert_314472-325175_13TeV_Legacy2018_Collisions18_JSON.txt'
p117
aS'Cert_294927-306462_13TeV_UL2017_Collisions17_GoldenJSON.txt'
p118
aS'Cert_271036-284044_13TeV_Legacy2016_Collisions16_JSON.txt'
p119
asbsbsS'voGroup'
p120
S''
sS'Server'
p121
S'cmsweb.cern.ch'
p122
sS'instance'
p123
S'prod'
p124
sS'RequestName'
p125
V210419_125419:soffi_crab_ggXToYYTo2mu2e_m18_PseudoScalar_13TeV
p126
sS'voRole'
p127
S'NULL'
p128
sS'Port'
p129
S''
s.